target datalayout = "e-m:e-p270:32:32-p271:32:32-p272:64:64-i64:64-i128:128-f80:128-n8:16:32:64-S128"
target triple = "x86_64-pc-linux-gnu"

%struct._zend_executor_globals = type { %struct._zval_struct, %struct._zval_struct, [32 x ptr], ptr, ptr, %struct._zend_array, %struct._zend_array, ptr, i32, i8, %struct._zval_struct, i32, ptr, ptr, ptr, ptr, ptr, ptr, i64, ptr, ptr, i32, ptr, i32, i64, i32, i32, i32, i8, i8, %struct.zend_atomic_bool_s, %struct.zend_atomic_bool_s, ptr, i64, ptr, ptr, %struct._zend_array, %struct._zend_array, i32, i8, %struct._zval_struct, %struct._zval_struct, %struct._zend_stack, %struct._zend_stack, %struct._zend_stack, ptr, i32, i32, i64, ptr, ptr, ptr, %struct._zend_objects_store, %struct._zend_lazy_objects_store, ptr, ptr, ptr, [3 x %struct._zend_op], ptr, i8, i8, i64, i32, i32, ptr, [16 x %struct._HashTableIterator], ptr, %union._zend_function, %struct._zend_op, %struct._zend_array, i64, %struct.zend_get_gc_buffer, ptr, ptr, ptr, i64, i8, i32, ptr, ptr, i64, %struct._zend_call_stack, i64, i64, %struct._zend_strtod_state, [6 x ptr] }
%struct.zend_atomic_bool_s = type { i8 }
%struct._zval_struct = type { %union._zend_value, %union.anon, %union.anon.2 }
%union._zend_value = type { i64 }
%union.anon = type { i32 }
%union.anon.2 = type { i32 }
%struct._zend_stack = type { i32, i32, i32, ptr }
%struct._zend_objects_store = type { ptr, i32, i32, i32 }
%struct._zend_lazy_objects_store = type { %struct._zend_array }
%struct._HashTableIterator = type { ptr, i32, i32 }
%union._zend_function = type { %struct._zend_op_array }
%struct._zend_op_array = type { i8, [3 x i8], i32, ptr, ptr, ptr, i32, i32, ptr, ptr, ptr, ptr, i32, ptr, i32, i32, i32, ptr, ptr, ptr, ptr, ptr, i32, i32, ptr, ptr, ptr, i32, i32, i32, i32, ptr, ptr, [6 x ptr] }
%struct._zend_op = type { ptr, %union._znode_op, %union._znode_op, %union._znode_op, i32, i32, i8, i8, i8, i8 }
%union._znode_op = type { i32 }
%struct._zend_array = type { %struct._zend_refcounted_h, %union.anon.4, i32, %union.anon.6, i32, i32, i32, i32, i64, ptr }
%struct._zend_refcounted_h = type { i32, %union.anon.3 }
%union.anon.3 = type { i32 }
%union.anon.4 = type { i32 }
%union.anon.6 = type { ptr }
%struct.zend_get_gc_buffer = type { ptr, ptr, ptr }
%struct._zend_call_stack = type { ptr, i64 }
%struct._zend_strtod_state = type { [8 x ptr], ptr, ptr }
%struct._zend_phar_globals = type { %struct._zend_array, %struct._zend_array, ptr, %struct._zend_array, i32, ptr, i8, i8, i8, i8, i8, i8, i8, i8, i8, i8, i8, i8, ptr, ptr, ptr, ptr, ptr, ptr, ptr, ptr, ptr, ptr, ptr, ptr, ptr, ptr, ptr, ptr, ptr, ptr, ptr, ptr, ptr, ptr, ptr, i32, i8, ptr, i32, ptr, i32, ptr, i32, ptr, %struct._zend_array }
%struct._zend_object_handlers = type { i32, ptr, ptr, ptr, ptr, ptr, ptr, ptr, ptr, ptr, ptr, ptr, ptr, ptr, ptr, ptr, ptr, ptr, ptr, ptr, ptr, ptr, ptr, ptr, ptr }
%struct._zend_execute_data = type { ptr, ptr, ptr, ptr, %struct._zval_struct, ptr, ptr, ptr, ptr }
%struct._phar_archive_data = type { ptr, i32, ptr, i32, ptr, i32, [12 x i8], i64, %struct._zend_array, %struct._zend_array, %struct._zend_array, i32, i32, i32, ptr, ptr, i32, i32, i32, ptr, %struct._phar_metadata_tracker, i32, i16 }
%struct._phar_metadata_tracker = type { %struct._zval_struct, ptr }
%struct._phar_entry_info = type { i32, i32, i32, i32, i32, i32, %struct._phar_metadata_tracker, ptr, i32, i64, i64, i64, ptr, ptr, i32, ptr, ptr, ptr, i8, i32, i16, i16 }
%struct._zend_object = type { %struct._zend_refcounted_h, i32, i32, ptr, ptr, ptr, [1 x %struct._zval_struct] }

@executor_globals = external global %struct._zend_executor_globals, align 8
@phar_ce_PharException = internal global ptr null, align 8
@phar_globals = external global %struct._zend_phar_globals, align 8
@.str.9 = private unnamed_addr constant [3 x i8] c"%s\00", align 1
@spl_ce_BadMethodCallException = external global ptr, align 8
@.str.72 = private unnamed_addr constant [51 x i8] c"Cannot call method on an uninitialized Phar object\00", align 1
@.str.77 = private unnamed_addr constant [49 x i8] c"phar \22%s\22 is persistent, unable to copy on write\00", align 1
@.str.93 = private unnamed_addr constant [2 x i8] c"P\00", align 1
@.str.147 = private unnamed_addr constant [63 x i8] c"Write operations disabled by the php.ini setting phar.readonly\00", align 1

; Function Attrs: alwaysinline nounwind uwtable
define internal ptr @zend_hash_find_ptr(ptr noundef %0, ptr noundef %1) #4 {
  %3 = alloca ptr, align 8
  %4 = alloca ptr, align 8
  %5 = alloca ptr, align 8
  %6 = alloca ptr, align 8
  %7 = alloca i32, align 4
  store ptr %0, ptr %4, align 8, !tbaa !59
  store ptr %1, ptr %5, align 8, !tbaa !46
  call void @llvm.lifetime.start.p0(i64 8, ptr %6) #17
  %8 = load ptr, ptr %4, align 8, !tbaa !59
  %9 = load ptr, ptr %5, align 8, !tbaa !46
  %10 = call ptr @zend_hash_find(ptr noundef %8, ptr noundef %9)
  store ptr %10, ptr %6, align 8, !tbaa !9
  %11 = load ptr, ptr %6, align 8, !tbaa !9
  %12 = icmp ne ptr %11, null
  br i1 %12, label %13, label %21

13:                                               ; preds = %2
  %14 = load ptr, ptr %6, align 8, !tbaa !9
  %15 = getelementptr inbounds nuw %struct._zval_struct, ptr %14, i32 0, i32 0
  %16 = load ptr, ptr %15, align 8, !tbaa !13
  %17 = icmp ne ptr %16, null
  call void @llvm.assume(i1 %17)
  %18 = load ptr, ptr %6, align 8, !tbaa !9
  %19 = getelementptr inbounds nuw %struct._zval_struct, ptr %18, i32 0, i32 0
  %20 = load ptr, ptr %19, align 8, !tbaa !13
  store ptr %20, ptr %3, align 8
  store i32 1, ptr %7, align 4
  br label %22

21:                                               ; preds = %2
  store ptr null, ptr %3, align 8
  store i32 1, ptr %7, align 4
  br label %22

22:                                               ; preds = %21, %13
  call void @llvm.lifetime.end.p0(i64 8, ptr %6) #17
  %23 = load ptr, ptr %3, align 8
  ret ptr %23
}

; Function Attrs: alwaysinline nounwind uwtable
define internal zeroext i1 @zend_hash_exists(ptr noundef %0, ptr noundef %1) #4 {
  %3 = alloca ptr, align 8
  %4 = alloca ptr, align 8
  store ptr %0, ptr %3, align 8, !tbaa !59
  store ptr %1, ptr %4, align 8, !tbaa !46
  %5 = load ptr, ptr %3, align 8, !tbaa !59
  %6 = load ptr, ptr %4, align 8, !tbaa !46
  %7 = call ptr @zend_hash_find(ptr noundef %5, ptr noundef %6)
  %8 = icmp ne ptr %7, null
  ret i1 %8
}

; Function Attrs: nounwind uwtable
define hidden void @zim_Phar_offsetUnset(ptr noundef %0, ptr noundef %1) #0 {
  %3 = alloca ptr, align 8
  %4 = alloca ptr, align 8
  %5 = alloca ptr, align 8
  %6 = alloca ptr, align 8
  %7 = alloca ptr, align 8
  %8 = alloca i32, align 4
  %9 = alloca ptr, align 8
  %10 = alloca ptr, align 8
  store ptr %0, ptr %3, align 8, !tbaa !4
  store ptr %1, ptr %4, align 8, !tbaa !9
  call void @llvm.lifetime.start.p0(i64 8, ptr %5) #17
  call void @llvm.lifetime.start.p0(i64 8, ptr %6) #17
  call void @llvm.lifetime.start.p0(i64 8, ptr %7) #17
  %11 = load ptr, ptr %3, align 8, !tbaa !4
  %12 = getelementptr inbounds nuw %struct._zend_execute_data, ptr %11, i32 0, i32 4
  %13 = getelementptr inbounds nuw %struct._zval_struct, ptr %12, i32 0, i32 2
  %14 = load i32, ptr %13, align 4, !tbaa !13
  %15 = call i32 (i32, ptr, ...) @zend_parse_parameters(i32 noundef %14, ptr noundef @.str.93, ptr noundef %6)
  %16 = icmp eq i32 %15, -1
  br i1 %16, label %17, label %23

17:                                               ; preds = %2
  br label %18

18:                                               ; preds = %17
  %19 = load ptr, ptr getelementptr inbounds nuw (%struct._zend_executor_globals, ptr @executor_globals, i32 0, i32 54), align 8, !tbaa !14
  %20 = icmp ne ptr %19, null
  call void @llvm.assume(i1 %20)
  store i32 1, ptr %8, align 4
  br label %147

21:                                               ; No predecessors!
  br label %22

22:                                               ; preds = %21
  br label %23

23:                                               ; preds = %22, %2
  call void @llvm.lifetime.start.p0(i64 8, ptr %9) #17
  %24 = load ptr, ptr %3, align 8, !tbaa !4
  %25 = getelementptr inbounds nuw %struct._zend_execute_data, ptr %24, i32 0, i32 4
  store ptr %25, ptr %9, align 8, !tbaa !9
  call void @llvm.lifetime.start.p0(i64 8, ptr %10) #17
  %26 = load ptr, ptr %9, align 8, !tbaa !9
  %27 = getelementptr inbounds nuw %struct._zval_struct, ptr %26, i32 0, i32 0
  %28 = load ptr, ptr %27, align 8, !tbaa !13
  %29 = load ptr, ptr %9, align 8, !tbaa !9
  %30 = getelementptr inbounds nuw %struct._zval_struct, ptr %29, i32 0, i32 0
  %31 = load ptr, ptr %30, align 8, !tbaa !13
  %32 = getelementptr inbounds nuw %struct._zend_object, ptr %31, i32 0, i32 4
  %33 = load ptr, ptr %32, align 8, !tbaa !118
  %34 = getelementptr inbounds nuw %struct._zend_object_handlers, ptr %33, i32 0, i32 0
  %35 = load i32, ptr %34, align 8, !tbaa !121
  %36 = sext i32 %35 to i64
  %37 = sub i64 0, %36
  %38 = getelementptr inbounds i8, ptr %28, i64 %37
  store ptr %38, ptr %10, align 8, !tbaa !123
  %39 = load ptr, ptr %10, align 8, !tbaa !123
  %40 = load ptr, ptr %39, align 8, !tbaa !13
  %41 = icmp ne ptr %40, null
  br i1 %41, label %50, label %42

42:                                               ; preds = %23
  %43 = load ptr, ptr @spl_ce_BadMethodCallException, align 8, !tbaa !53
  %44 = call ptr (ptr, i64, ptr, ...) @zend_throw_exception_ex(ptr noundef %43, i64 noundef 0, ptr noundef @.str.72)
  br label %45

45:                                               ; preds = %42
  %46 = load ptr, ptr getelementptr inbounds nuw (%struct._zend_executor_globals, ptr @executor_globals, i32 0, i32 54), align 8, !tbaa !14
  %47 = icmp ne ptr %46, null
  call void @llvm.assume(i1 %47)
  store i32 1, ptr %8, align 4
  br label %146

48:                                               ; No predecessors!
  br label %49

49:                                               ; preds = %48
  br label %50

50:                                               ; preds = %49, %23
  %51 = load i8, ptr getelementptr inbounds nuw (%struct._zend_phar_globals, ptr @phar_globals, i32 0, i32 6), align 8, !tbaa !117, !range !50, !noundef !51
  %52 = trunc i8 %51 to i1
  br i1 %52, label %53, label %70

53:                                               ; preds = %50
  %54 = load ptr, ptr %10, align 8, !tbaa !123
  %55 = load ptr, ptr %54, align 8, !tbaa !13
  %56 = getelementptr inbounds nuw %struct._phar_archive_data, ptr %55, i32 0, i32 22
  %57 = load i16, ptr %56, align 4
  %58 = lshr i16 %57, 7
  %59 = and i16 %58, 1
  %60 = zext i16 %59 to i32
  %61 = icmp ne i32 %60, 0
  br i1 %61, label %70, label %62

62:                                               ; preds = %53
  %63 = load ptr, ptr @spl_ce_BadMethodCallException, align 8, !tbaa !53
  %64 = call ptr (ptr, i64, ptr, ...) @zend_throw_exception_ex(ptr noundef %63, i64 noundef 0, ptr noundef @.str.147)
  br label %65

65:                                               ; preds = %62
  %66 = load ptr, ptr getelementptr inbounds nuw (%struct._zend_executor_globals, ptr @executor_globals, i32 0, i32 54), align 8, !tbaa !14
  %67 = icmp ne ptr %66, null
  call void @llvm.assume(i1 %67)
  store i32 1, ptr %8, align 4
  br label %146

68:                                               ; No predecessors!
  br label %69

69:                                               ; preds = %68
  br label %70

70:                                               ; preds = %69, %53, %50
  %71 = load ptr, ptr %10, align 8, !tbaa !123
  %72 = load ptr, ptr %71, align 8, !tbaa !13
  %73 = getelementptr inbounds nuw %struct._phar_archive_data, ptr %72, i32 0, i32 8
  %74 = load ptr, ptr %6, align 8, !tbaa !46
  %75 = call zeroext i1 @zend_hash_exists(ptr noundef %73, ptr noundef %74)
  br i1 %75, label %76, label %145

76:                                               ; preds = %70
  %77 = load ptr, ptr %10, align 8, !tbaa !123
  %78 = load ptr, ptr %77, align 8, !tbaa !13
  %79 = getelementptr inbounds nuw %struct._phar_archive_data, ptr %78, i32 0, i32 8
  %80 = load ptr, ptr %6, align 8, !tbaa !46
  %81 = call ptr @zend_hash_find_ptr(ptr noundef %79, ptr noundef %80)
  store ptr %81, ptr %7, align 8, !tbaa !60
  %82 = icmp ne ptr null, %81
  br i1 %82, label %83, label %144

83:                                               ; preds = %76
  %84 = load ptr, ptr %7, align 8, !tbaa !60
  %85 = getelementptr inbounds nuw %struct._phar_entry_info, ptr %84, i32 0, i32 21
  %86 = load i16, ptr %85, align 2
  %87 = lshr i16 %86, 2
  %88 = and i16 %87, 1
  %89 = zext i16 %88 to i32
  %90 = icmp ne i32 %89, 0
  br i1 %90, label %91, label %92

91:                                               ; preds = %83
  store i32 1, ptr %8, align 4
  br label %146

92:                                               ; preds = %83
  %93 = load ptr, ptr %10, align 8, !tbaa !123
  %94 = load ptr, ptr %93, align 8, !tbaa !13
  %95 = getelementptr inbounds nuw %struct._phar_archive_data, ptr %94, i32 0, i32 22
  %96 = load i16, ptr %95, align 4
  %97 = lshr i16 %96, 8
  %98 = and i16 %97, 1
  %99 = zext i16 %98 to i32
  %100 = icmp ne i32 %99, 0
  br i1 %100, label %101, label %123

101:                                              ; preds = %92
  %102 = load ptr, ptr %10, align 8, !tbaa !123
  %103 = call i32 @phar_copy_on_write(ptr noundef %102)
  %104 = icmp eq i32 -1, %103
  br i1 %104, label %105, label %117

105:                                              ; preds = %101
  %106 = load ptr, ptr @phar_ce_PharException, align 8, !tbaa !53
  %107 = load ptr, ptr %10, align 8, !tbaa !123
  %108 = load ptr, ptr %107, align 8, !tbaa !13
  %109 = getelementptr inbounds nuw %struct._phar_archive_data, ptr %108, i32 0, i32 0
  %110 = load ptr, ptr %109, align 8, !tbaa !128
  %111 = call ptr (ptr, i64, ptr, ...) @zend_throw_exception_ex(ptr noundef %106, i64 noundef 0, ptr noundef @.str.77, ptr noundef %110)
  br label %112

112:                                              ; preds = %105
  %113 = load ptr, ptr getelementptr inbounds nuw (%struct._zend_executor_globals, ptr @executor_globals, i32 0, i32 54), align 8, !tbaa !14
  %114 = icmp ne ptr %113, null
  call void @llvm.assume(i1 %114)
  store i32 1, ptr %8, align 4
  br label %146

115:                                              ; No predecessors!
  br label %116

116:                                              ; preds = %115
  br label %117

117:                                              ; preds = %116, %101
  %118 = load ptr, ptr %10, align 8, !tbaa !123
  %119 = load ptr, ptr %118, align 8, !tbaa !13
  %120 = getelementptr inbounds nuw %struct._phar_archive_data, ptr %119, i32 0, i32 8
  %121 = load ptr, ptr %6, align 8, !tbaa !46
  %122 = call ptr @zend_hash_find_ptr(ptr noundef %120, ptr noundef %121)
  store ptr %122, ptr %7, align 8, !tbaa !60
  br label %123

123:                                              ; preds = %117, %92
  %124 = load ptr, ptr %7, align 8, !tbaa !60
  %125 = getelementptr inbounds nuw %struct._phar_entry_info, ptr %124, i32 0, i32 21
  %126 = load i16, ptr %125, align 2
  %127 = and i16 %126, -3
  %128 = or i16 %127, 0
  store i16 %128, ptr %125, align 2
  %129 = load ptr, ptr %7, align 8, !tbaa !60
  %130 = getelementptr inbounds nuw %struct._phar_entry_info, ptr %129, i32 0, i32 21
  %131 = load i16, ptr %130, align 2
  %132 = and i16 %131, -5
  %133 = or i16 %132, 4
  store i16 %133, ptr %130, align 2
  %134 = load ptr, ptr %10, align 8, !tbaa !123
  %135 = load ptr, ptr %134, align 8, !tbaa !13
  call void @phar_flush(ptr noundef %135, ptr noundef %5)
  %136 = load ptr, ptr %5, align 8, !tbaa !49
  %137 = icmp ne ptr %136, null
  br i1 %137, label %138, label %143

138:                                              ; preds = %123
  %139 = load ptr, ptr @phar_ce_PharException, align 8, !tbaa !53
  %140 = load ptr, ptr %5, align 8, !tbaa !49
  %141 = call ptr (ptr, i64, ptr, ...) @zend_throw_exception_ex(ptr noundef %139, i64 noundef 0, ptr noundef @.str.9, ptr noundef %140)
  %142 = load ptr, ptr %5, align 8, !tbaa !49
  call void @_efree(ptr noundef %142)
  br label %143

143:                                              ; preds = %138, %123
  br label %144

144:                                              ; preds = %143, %76
  br label %145

145:                                              ; preds = %144, %70
  store i32 0, ptr %8, align 4
  br label %146

146:                                              ; preds = %145, %112, %91, %65, %45
  call void @llvm.lifetime.end.p0(i64 8, ptr %10) #17
  call void @llvm.lifetime.end.p0(i64 8, ptr %9) #17
  br label %147

147:                                              ; preds = %146, %18
  call void @llvm.lifetime.end.p0(i64 8, ptr %7) #17
  call void @llvm.lifetime.end.p0(i64 8, ptr %6) #17
  call void @llvm.lifetime.end.p0(i64 8, ptr %5) #17
  %148 = load i32, ptr %8, align 4
  switch i32 %148, label %150 [
    i32 0, label %149
    i32 1, label %149
  ]

149:                                              ; preds = %147, %147
  ret void

150:                                              ; preds = %147
  unreachable
}