; Function Attrs: nounwind uwtable
define hidden void @zim_Phar_offsetUnset(ptr noundef readonly captures(none) %0, ptr readnone captures(none) %1) #0 {
  %3 = alloca ptr, align 8
  %4 = alloca ptr, align 8
  call void @llvm.lifetime.start.p0(i64 8, ptr nonnull %3) #20
  call void @llvm.lifetime.start.p0(i64 8, ptr nonnull %4) #20
  %5 = getelementptr inbounds nuw i8, ptr %0, i64 44
  %6 = load i32, ptr %5, align 4, !tbaa !8
  %7 = call i32 (i32, ptr, ...) @zend_parse_parameters(i32 noundef %6, ptr noundef nonnull @.str.93, ptr noundef nonnull %4) #20
  %8 = icmp eq i32 %7, -1
  br i1 %8, label %9, label %12

9:                                                ; preds = %2
  %10 = load ptr, ptr getelementptr inbounds nuw (i8, ptr @executor_globals, i64 960), align 8, !tbaa !9
  %11 = icmp ne ptr %10, null
  call void @llvm.assume(i1 %11)
  br label %zend_hash_find_ptr.exit26.thread

12:                                               ; preds = %2
  %13 = getelementptr inbounds nuw i8, ptr %0, i64 32
  %14 = load ptr, ptr %13, align 8, !tbaa !8
  %15 = getelementptr inbounds nuw i8, ptr %14, i64 24
  %16 = load ptr, ptr %15, align 8, !tbaa !109
  %17 = load i32, ptr %16, align 8, !tbaa !112
  %18 = sext i32 %17 to i64
  %19 = sub nsw i64 0, %18
  %20 = getelementptr inbounds i8, ptr %14, i64 %19
  %21 = load ptr, ptr %20, align 8, !tbaa !8
  %.not = icmp eq ptr %21, null
  br i1 %.not, label %22, label %27

22:                                               ; preds = %12
  %23 = load ptr, ptr @spl_ce_BadMethodCallException, align 8, !tbaa !54
  %24 = call ptr (ptr, i64, ptr, ...) @zend_throw_exception_ex(ptr noundef %23, i64 noundef 0, ptr noundef nonnull @.str.72) #20
  %25 = load ptr, ptr getelementptr inbounds nuw (i8, ptr @executor_globals, i64 960), align 8, !tbaa !9
  %26 = icmp ne ptr %25, null
  call void @llvm.assume(i1 %26)
  br label %zend_hash_find_ptr.exit26.thread

27:                                               ; preds = %12
  %28 = load i8, ptr getelementptr inbounds nuw (i8, ptr @phar_globals, i64 192), align 8, !tbaa !108, !range !48, !noundef !49
  %29 = trunc nuw i8 %28 to i1
  br i1 %29, label %30, label %39

30:                                               ; preds = %27
  %31 = getelementptr inbounds nuw i8, ptr %21, i64 316
  %32 = load i16, ptr %31, align 4
  %33 = and i16 %32, 128
  %.not19 = icmp eq i16 %33, 0
  br i1 %.not19, label %34, label %39

34:                                               ; preds = %30
  %35 = load ptr, ptr @spl_ce_BadMethodCallException, align 8, !tbaa !54
  %36 = call ptr (ptr, i64, ptr, ...) @zend_throw_exception_ex(ptr noundef %35, i64 noundef 0, ptr noundef nonnull @.str.147) #20
  %37 = load ptr, ptr getelementptr inbounds nuw (i8, ptr @executor_globals, i64 960), align 8, !tbaa !9
  %38 = icmp ne ptr %37, null
  call void @llvm.assume(i1 %38)
  br label %zend_hash_find_ptr.exit26.thread

39:                                               ; preds = %30, %27
  %40 = getelementptr inbounds nuw i8, ptr %21, i64 64
  %41 = load ptr, ptr %4, align 8, !tbaa !44
  %42 = call ptr @zend_hash_find(ptr noundef nonnull %40, ptr noundef %41) #20
  %.not29 = icmp eq ptr %42, null
  br i1 %.not29, label %zend_hash_find_ptr.exit26.thread, label %43

43:                                               ; preds = %39
  %44 = load ptr, ptr %20, align 8, !tbaa !8
  %45 = getelementptr inbounds nuw i8, ptr %44, i64 64
  %46 = load ptr, ptr %4, align 8, !tbaa !44
  %47 = call ptr @zend_hash_find(ptr noundef nonnull %45, ptr noundef %46) #20
  %.not.i24 = icmp eq ptr %47, null
  br i1 %.not.i24, label %zend_hash_find_ptr.exit26.thread, label %48

48:                                               ; preds = %43
  %49 = load ptr, ptr %47, align 8, !tbaa !8, !nonnull !49, !noundef !49
  %50 = getelementptr inbounds nuw i8, ptr %49, i64 146
  %51 = load i16, ptr %50, align 2
  %52 = and i16 %51, 4
  %.not21 = icmp eq i16 %52, 0
  br i1 %.not21, label %53, label %zend_hash_find_ptr.exit26.thread

53:                                               ; preds = %48
  %54 = load ptr, ptr %20, align 8, !tbaa !8
  %55 = getelementptr inbounds nuw i8, ptr %54, i64 316
  %56 = load i16, ptr %55, align 4
  %57 = and i16 %56, 256
  %.not22 = icmp eq i16 %57, 0
  br i1 %.not22, label %zend_hash_find_ptr.exit, label %58

58:                                               ; preds = %53
  %59 = call i32 @phar_copy_on_write(ptr noundef nonnull %20) #20
  %60 = icmp eq i32 %59, -1
  br i1 %60, label %61, label %68

61:                                               ; preds = %58
  %62 = load ptr, ptr @phar_ce_PharException, align 8, !tbaa !54
  %63 = load ptr, ptr %20, align 8, !tbaa !8
  %64 = load ptr, ptr %63, align 8, !tbaa !117
  %65 = call ptr (ptr, i64, ptr, ...) @zend_throw_exception_ex(ptr noundef %62, i64 noundef 0, ptr noundef nonnull @.str.77, ptr noundef %64) #20
  %66 = load ptr, ptr getelementptr inbounds nuw (i8, ptr @executor_globals, i64 960), align 8, !tbaa !9
  %67 = icmp ne ptr %66, null
  call void @llvm.assume(i1 %67)
  br label %zend_hash_find_ptr.exit26.thread

68:                                               ; preds = %58
  %69 = load ptr, ptr %20, align 8, !tbaa !8
  %70 = getelementptr inbounds nuw i8, ptr %69, i64 64
  %71 = load ptr, ptr %4, align 8, !tbaa !44
  %72 = call ptr @zend_hash_find(ptr noundef nonnull %70, ptr noundef %71) #20
  %.not.i = icmp ne ptr %72, null
  call void @llvm.assume(i1 %.not.i)
  %73 = load ptr, ptr %72, align 8, !tbaa !8, !nonnull !49, !noundef !49
  %.phi.trans.insert = getelementptr inbounds nuw i8, ptr %73, i64 146
  %.pre = load i16, ptr %.phi.trans.insert, align 2
  br label %zend_hash_find_ptr.exit

zend_hash_find_ptr.exit:                          ; preds = %68, %53
  %74 = phi i16 [ %51, %53 ], [ %.pre, %68 ]
  %.0 = phi ptr [ %49, %53 ], [ %73, %68 ]
  %75 = getelementptr inbounds nuw i8, ptr %.0, i64 146
  %76 = and i16 %74, -7
  %77 = or disjoint i16 %76, 4
  store i16 %77, ptr %75, align 2
  %78 = load ptr, ptr %20, align 8, !tbaa !8
  call void @phar_flush(ptr noundef %78, ptr noundef nonnull %3) #20
  %79 = load ptr, ptr %3, align 8, !tbaa !47
  %.not23 = icmp eq ptr %79, null
  br i1 %.not23, label %zend_hash_find_ptr.exit26.thread, label %80

80:                                               ; preds = %zend_hash_find_ptr.exit
  %81 = load ptr, ptr @phar_ce_PharException, align 8, !tbaa !54
  %82 = call ptr (ptr, i64, ptr, ...) @zend_throw_exception_ex(ptr noundef %81, i64 noundef 0, ptr noundef nonnull @.str.9, ptr noundef nonnull %79) #20
  %83 = load ptr, ptr %3, align 8, !tbaa !47
  call void @_efree(ptr noundef %83) #20
  br label %zend_hash_find_ptr.exit26.thread

zend_hash_find_ptr.exit26.thread:                 ; preds = %43, %22, %34, %61, %48, %80, %zend_hash_find_ptr.exit, %39, %9
  call void @llvm.lifetime.end.p0(i64 8, ptr nonnull %4) #20
  call void @llvm.lifetime.end.p0(i64 8, ptr nonnull %3) #20
  ret void
}